target datalayout = "e-m:e-p270:32:32-p271:32:32-p272:64:64-i64:64-i128:128-f80:128-n8:16:32:64-S128"
target triple = "x86_64-pc-linux-gnu"

%struct.ParseState = type { ptr, ptr, i32, i32, ptr, ptr, ptr, ptr, ptr, ptr, i8, ptr, ptr, ptr, ptr, ptr, ptr, i8, ptr, i32, i32, ptr, ptr, i8, i8, ptr, i8, i8, i8, i8, i8, ptr, ptr, ptr, ptr, ptr, ptr }
%struct.Node = type { i32 }
%struct.Expr = type { i32 }
%union.ListCell = type { ptr }
%struct.ColumnRef = type { i32, ptr, i32 }
%struct.Param = type { %struct.Expr, i32, i32, i32, i32, i32, i32 }
%struct.ParseNamespaceItem = type { ptr, ptr, i32, ptr, ptr, i8, i8, i8, i8, i32 }
%struct.CurrentOfExpr = type { %struct.Expr, i32, ptr, i32 }

; Function Attrs: inlinehint nounwind uwtable
define internal ptr @newNode(i64 noundef %0, i32 noundef %1) #4 {
  %3 = alloca i64, align 8
  %4 = alloca i32, align 4
  %5 = alloca ptr, align 8
  store i64 %0, ptr %3, align 8
  store i32 %1, ptr %4, align 4
  call void @llvm.lifetime.start.p0(i64 8, ptr %5) #8
  %6 = load i64, ptr %3, align 8
  %7 = call ptr @palloc0(i64 noundef %6)
  store ptr %7, ptr %5, align 8
  %8 = load i32, ptr %4, align 4
  %9 = load ptr, ptr %5, align 8
  %10 = getelementptr inbounds nuw %struct.Node, ptr %9, i32 0, i32 0
  store i32 %8, ptr %10, align 4
  %11 = load ptr, ptr %5, align 8
  call void @llvm.lifetime.end.p0(i64 8, ptr %5) #8
  ret ptr %11
}

; Function Attrs: nounwind uwtable
define internal ptr @transformCurrentOfExpr(ptr noundef %0, ptr noundef %1) #0 {
  %3 = alloca ptr, align 8
  %4 = alloca ptr, align 8
  %5 = alloca ptr, align 8
  %6 = alloca ptr, align 8
  %7 = alloca %union.ListCell, align 8
  %8 = alloca ptr, align 8
  store ptr %0, ptr %3, align 8
  store ptr %1, ptr %4, align 8
  %9 = load ptr, ptr %3, align 8
  %10 = getelementptr inbounds nuw %struct.ParseState, ptr %9, i32 0, i32 15
  %11 = load ptr, ptr %10, align 8
  %12 = getelementptr inbounds nuw %struct.ParseNamespaceItem, ptr %11, i32 0, i32 2
  %13 = load i32, ptr %12, align 8
  %14 = load ptr, ptr %4, align 8
  %15 = getelementptr inbounds nuw %struct.CurrentOfExpr, ptr %14, i32 0, i32 1
  store i32 %13, ptr %15, align 4
  %16 = load ptr, ptr %4, align 8
  %17 = getelementptr inbounds nuw %struct.CurrentOfExpr, ptr %16, i32 0, i32 2
  %18 = load ptr, ptr %17, align 8
  %19 = icmp ne ptr %18, null
  br i1 %19, label %20, label %88

20:                                               ; preds = %2
  call void @llvm.lifetime.start.p0(i64 8, ptr %5) #8
  %21 = call ptr @newNode(i64 noundef 24, i32 noundef 69)
  store ptr %21, ptr %5, align 8
  call void @llvm.lifetime.start.p0(i64 8, ptr %6) #8
  store ptr null, ptr %6, align 8
  %22 = load ptr, ptr %4, align 8
  %23 = getelementptr inbounds nuw %struct.CurrentOfExpr, ptr %22, i32 0, i32 2
  %24 = load ptr, ptr %23, align 8
  %25 = call ptr @makeString(ptr noundef %24)
  store ptr %25, ptr %7, align 8
  %26 = getelementptr inbounds nuw %union.ListCell, ptr %7, i32 0, i32 0
  %27 = load ptr, ptr %26, align 8
  %28 = call ptr @list_make1_impl(i32 noundef 1, ptr %27)
  %29 = load ptr, ptr %5, align 8
  %30 = getelementptr inbounds nuw %struct.ColumnRef, ptr %29, i32 0, i32 1
  store ptr %28, ptr %30, align 8
  %31 = load ptr, ptr %5, align 8
  %32 = getelementptr inbounds nuw %struct.ColumnRef, ptr %31, i32 0, i32 2
  store i32 -1, ptr %32, align 8
  %33 = load ptr, ptr %3, align 8
  %34 = getelementptr inbounds nuw %struct.ParseState, ptr %33, i32 0, i32 32
  %35 = load ptr, ptr %34, align 8
  %36 = icmp ne ptr %35, null
  br i1 %36, label %37, label %44

37:                                               ; preds = %20
  %38 = load ptr, ptr %3, align 8
  %39 = getelementptr inbounds nuw %struct.ParseState, ptr %38, i32 0, i32 32
  %40 = load ptr, ptr %39, align 8
  %41 = load ptr, ptr %3, align 8
  %42 = load ptr, ptr %5, align 8
  %43 = call ptr %40(ptr noundef %41, ptr noundef %42)
  store ptr %43, ptr %6, align 8
  br label %44

44:                                               ; preds = %37, %20
  %45 = load ptr, ptr %6, align 8
  %46 = icmp eq ptr %45, null
  br i1 %46, label %47, label %59

47:                                               ; preds = %44
  %48 = load ptr, ptr %3, align 8
  %49 = getelementptr inbounds nuw %struct.ParseState, ptr %48, i32 0, i32 33
  %50 = load ptr, ptr %49, align 8
  %51 = icmp ne ptr %50, null
  br i1 %51, label %52, label %59

52:                                               ; preds = %47
  %53 = load ptr, ptr %3, align 8
  %54 = getelementptr inbounds nuw %struct.ParseState, ptr %53, i32 0, i32 33
  %55 = load ptr, ptr %54, align 8
  %56 = load ptr, ptr %3, align 8
  %57 = load ptr, ptr %5, align 8
  %58 = call ptr %55(ptr noundef %56, ptr noundef %57, ptr noundef null)
  store ptr %58, ptr %6, align 8
  br label %59

59:                                               ; preds = %52, %47, %44
  %60 = load ptr, ptr %6, align 8
  %61 = icmp ne ptr %60, null
  br i1 %61, label %62, label %87

62:                                               ; preds = %59
  %63 = load ptr, ptr %6, align 8
  %64 = getelementptr inbounds nuw %struct.Node, ptr %63, i32 0, i32 0
  %65 = load i32, ptr %64, align 4
  %66 = icmp eq i32 %65, 8
  br i1 %66, label %67, label %87

67:                                               ; preds = %62
  call void @llvm.lifetime.start.p0(i64 8, ptr %8) #8
  %68 = load ptr, ptr %6, align 8
  store ptr %68, ptr %8, align 8
  %69 = load ptr, ptr %8, align 8
  %70 = getelementptr inbounds nuw %struct.Param, ptr %69, i32 0, i32 1
  %71 = load i32, ptr %70, align 4
  %72 = icmp eq i32 %71, 0
  br i1 %72, label %73, label %86

73:                                               ; preds = %67
  %74 = load ptr, ptr %8, align 8
  %75 = getelementptr inbounds nuw %struct.Param, ptr %74, i32 0, i32 3
  %76 = load i32, ptr %75, align 4
  %77 = icmp eq i32 %76, 1790
  br i1 %77, label %78, label %86

78:                                               ; preds = %73
  %79 = load ptr, ptr %4, align 8
  %80 = getelementptr inbounds nuw %struct.CurrentOfExpr, ptr %79, i32 0, i32 2
  store ptr null, ptr %80, align 8
  %81 = load ptr, ptr %8, align 8
  %82 = getelementptr inbounds nuw %struct.Param, ptr %81, i32 0, i32 2
  %83 = load i32, ptr %82, align 4
  %84 = load ptr, ptr %4, align 8
  %85 = getelementptr inbounds nuw %struct.CurrentOfExpr, ptr %84, i32 0, i32 3
  store i32 %83, ptr %85, align 8
  br label %86

86:                                               ; preds = %78, %73, %67
  call void @llvm.lifetime.end.p0(i64 8, ptr %8) #8
  br label %87

87:                                               ; preds = %86, %62, %59
  call void @llvm.lifetime.end.p0(i64 8, ptr %6) #8
  call void @llvm.lifetime.end.p0(i64 8, ptr %5) #8
  br label %88

88:                                               ; preds = %87, %2
  %89 = load ptr, ptr %4, align 8
  ret ptr %89
}