; Function Attrs: nounwind uwtable
define internal fastcc noundef nonnull ptr @transformCurrentOfExpr(ptr noundef %0, ptr noundef nonnull returned captures(ret: address, provenance) initializes((4, 8)) %1) unnamed_addr #0 {
  %3 = getelementptr inbounds nuw i8, ptr %0, i64 112
  %4 = load ptr, ptr %3, align 8
  %5 = getelementptr inbounds nuw i8, ptr %4, i64 16
  %6 = load i32, ptr %5, align 8
  %7 = getelementptr inbounds nuw i8, ptr %1, i64 4
  store i32 %6, ptr %7, align 4
  %8 = getelementptr inbounds nuw i8, ptr %1, i64 8
  %9 = load ptr, ptr %8, align 8
  %.not = icmp eq ptr %9, null
  br i1 %.not, label %.thread30, label %10

10:                                               ; preds = %2
  %11 = tail call noundef ptr @palloc0(i64 noundef 24) #9
  store i32 69, ptr %11, align 4
  %12 = load ptr, ptr %8, align 8
  %13 = tail call ptr @makeString(ptr noundef %12) #9
  %14 = tail call ptr @list_make1_impl(i32 noundef 1, ptr %13) #9
  %15 = getelementptr inbounds nuw i8, ptr %11, i64 8
  store ptr %14, ptr %15, align 8
  %16 = getelementptr inbounds nuw i8, ptr %11, i64 16
  store i32 -1, ptr %16, align 8
  %17 = getelementptr inbounds nuw i8, ptr %0, i64 200
  %18 = load ptr, ptr %17, align 8
  %.not26 = icmp eq ptr %18, null
  br i1 %.not26, label %.thread, label %19

19:                                               ; preds = %10
  %20 = tail call ptr %18(ptr noundef nonnull %0, ptr noundef nonnull %11) #9
  %21 = icmp eq ptr %20, null
  br i1 %21, label %.thread, label %.thread33

.thread:                                          ; preds = %10, %19
  %22 = getelementptr inbounds nuw i8, ptr %0, i64 208
  %23 = load ptr, ptr %22, align 8
  %.not27 = icmp eq ptr %23, null
  br i1 %.not27, label %.thread30, label %24

24:                                               ; preds = %.thread
  %25 = tail call ptr %23(ptr noundef nonnull %0, ptr noundef nonnull %11, ptr noundef null) #9
  %.not28 = icmp eq ptr %25, null
  br i1 %.not28, label %.thread30, label %.thread33

.thread33:                                        ; preds = %19, %24
  %.136 = phi ptr [ %25, %24 ], [ %20, %19 ]
  %26 = load i32, ptr %.136, align 4
  %27 = icmp eq i32 %26, 8
  br i1 %27, label %28, label %.thread30

28:                                               ; preds = %.thread33
  %29 = getelementptr inbounds nuw i8, ptr %.136, i64 4
  %30 = load i32, ptr %29, align 4
  %31 = icmp eq i32 %30, 0
  br i1 %31, label %32, label %.thread30

32:                                               ; preds = %28
  %33 = getelementptr inbounds nuw i8, ptr %.136, i64 12
  %34 = load i32, ptr %33, align 4
  %35 = icmp eq i32 %34, 1790
  br i1 %35, label %36, label %.thread30

36:                                               ; preds = %32
  store ptr null, ptr %8, align 8
  %37 = getelementptr inbounds nuw i8, ptr %.136, i64 8
  %38 = load i32, ptr %37, align 4
  %39 = getelementptr inbounds nuw i8, ptr %1, i64 16
  store i32 %38, ptr %39, align 8
  br label %.thread30

.thread30:                                        ; preds = %.thread, %24, %.thread33, %36, %32, %28, %2
  ret ptr %1
}